target datalayout = "e-m:e-p270:32:32-p271:32:32-p272:64:64-i64:64-i128:128-f80:128-n8:16:32:64-S128"
target triple = "x86_64-pc-linux-gnu"

%"class.clang::QualType" = type { %"class.llvm::PointerIntPair" }
%"class.llvm::PointerIntPair" = type { %"struct.llvm::detail::PunnedPointer" }
%"struct.llvm::detail::PunnedPointer" = type { [8 x i8] }
%"class.clang::SourceLocation" = type { i32 }
%"class.clang::Expr" = type { %"class.clang::ValueStmt", %"class.clang::QualType" }
%"class.clang::ValueStmt" = type { %"class.clang::Stmt" }
%"class.clang::Stmt" = type { %union.anon }
%union.anon = type { %"class.clang::Stmt::PseudoObjectExprBitfields" }
%"class.clang::Stmt::PseudoObjectExprBitfields" = type { i64 }
%"struct.llvm::detail::PunnedPointer.353" = type { [8 x i8] }
%"class.clang::Selector" = type { %"class.llvm::PointerIntPair.354" }
%"class.llvm::PointerIntPair.354" = type { %"struct.llvm::detail::PunnedPointer.355" }
%"struct.llvm::detail::PunnedPointer.355" = type { [8 x i8] }
%"class.clang::ObjCMessageExpr" = type { %"class.clang::Expr", i64, i32, %"class.clang::SourceLocation", %"class.clang::SourceLocation", %"class.clang::SourceLocation" }
%"class.clang::NamedDecl" = type { %"class.clang::Decl.base", %"class.clang::DeclarationName" }
%"class.clang::Decl.base" = type <{ ptr, %"class.llvm::PointerIntPair.365", %"class.llvm::PointerUnion.367", %"class.clang::SourceLocation", i32, i8 }>
%"class.llvm::PointerIntPair.365" = type { %"struct.llvm::detail::PunnedPointer.366" }
%"struct.llvm::detail::PunnedPointer.366" = type { [8 x i8] }
%"class.llvm::PointerUnion.367" = type { %"class.llvm::pointer_union_detail::PointerUnionMembers.368" }
%"class.llvm::pointer_union_detail::PointerUnionMembers.368" = type { %"class.llvm::pointer_union_detail::PointerUnionMembers.369" }
%"class.llvm::pointer_union_detail::PointerUnionMembers.369" = type { %"class.llvm::pointer_union_detail::PointerUnionMembers.370" }
%"class.llvm::pointer_union_detail::PointerUnionMembers.370" = type { %"class.llvm::PointerIntPair.371" }
%"class.llvm::PointerIntPair.371" = type { %"struct.llvm::detail::PunnedPointer.353" }
%"class.clang::DeclarationName" = type { i64 }

; Function Attrs: mustprogress nounwind uwtable
define linkonce_odr hidden noundef nonnull align 8 dereferenceable(8) ptr @_ZN4llvm6detail13PunnedPointerINS_12PointerUnionIJPKN5clang14IdentifierInfoEPNS3_20MultiKeywordSelectorEEEEEaSEl(ptr noundef nonnull align 8 dereferenceable(8) %0, i64 noundef %1) #0 comdat align 2 {
  %3 = alloca ptr, align 8
  %4 = alloca i64, align 8
  store ptr %0, ptr %3, align 8
  store i64 %1, ptr %4, align 8
  %5 = load ptr, ptr %3, align 8
  %6 = getelementptr inbounds nuw %"struct.llvm::detail::PunnedPointer.355", ptr %5, i32 0, i32 0
  %7 = getelementptr inbounds [8 x i8], ptr %6, i64 0, i64 0
  call void @llvm.memcpy.p0.p0.i64(ptr align 8 %7, ptr align 8 %4, i64 8, i1 false)
  ret ptr %5
}

; Function Attrs: mustprogress nounwind uwtable
define linkonce_odr hidden void @_ZN4llvm6detail13PunnedPointerINS_12PointerUnionIJPKN5clang14IdentifierInfoEPNS3_20MultiKeywordSelectorEEEEEC2El(ptr noundef nonnull align 8 dereferenceable(8) %0, i64 noundef %1) unnamed_addr #0 comdat align 2 {
  %3 = alloca ptr, align 8
  %4 = alloca i64, align 8
  store ptr %0, ptr %3, align 8
  store i64 %1, ptr %4, align 8
  %5 = load ptr, ptr %3, align 8
  %6 = load i64, ptr %4, align 8
  %7 = call noundef nonnull align 8 dereferenceable(8) ptr @_ZN4llvm6detail13PunnedPointerINS_12PointerUnionIJPKN5clang14IdentifierInfoEPNS3_20MultiKeywordSelectorEEEEEaSEl(ptr noundef nonnull align 8 dereferenceable(8) %5, i64 noundef %6)
  ret void
}

; Function Attrs: mustprogress nounwind uwtable
define linkonce_odr hidden void @_ZNR4llvm14PointerIntPairINS_12PointerUnionIJPKN5clang14IdentifierInfoEPNS2_20MultiKeywordSelectorEEEELj2EjNS_21PointerLikeTypeTraitsIS8_EENS_18PointerIntPairInfoIS8_Lj2ESA_EEE18setFromOpaqueValueEPv(ptr noundef nonnull align 8 dereferenceable(8) %0, ptr noundef %1) #0 comdat align 2 {
  %3 = alloca ptr, align 8
  %4 = alloca ptr, align 8
  store ptr %0, ptr %3, align 8
  store ptr %1, ptr %4, align 8
  %5 = load ptr, ptr %3, align 8
  %6 = load ptr, ptr %4, align 8
  %7 = ptrtoint ptr %6 to i64
  %8 = getelementptr inbounds nuw %"class.llvm::PointerIntPair.354", ptr %5, i32 0, i32 0
  %9 = call noundef nonnull align 8 dereferenceable(8) ptr @_ZN4llvm6detail13PunnedPointerINS_12PointerUnionIJPKN5clang14IdentifierInfoEPNS3_20MultiKeywordSelectorEEEEEaSEl(ptr noundef nonnull align 8 dereferenceable(8) %8, i64 noundef %7)
  ret void
}

; Function Attrs: mustprogress nounwind uwtable
define linkonce_odr hidden void @_ZN4llvm14PointerIntPairINS_12PointerUnionIJPKN5clang14IdentifierInfoEPNS2_20MultiKeywordSelectorEEEELj2EjNS_21PointerLikeTypeTraitsIS8_EENS_18PointerIntPairInfoIS8_Lj2ESA_EEEC2Ev(ptr noundef nonnull align 8 dereferenceable(8) %0) unnamed_addr #0 comdat align 2 {
  %2 = alloca ptr, align 8
  store ptr %0, ptr %2, align 8
  %3 = load ptr, ptr %2, align 8
  %4 = getelementptr inbounds nuw %"class.llvm::PointerIntPair.354", ptr %3, i32 0, i32 0
  call void @_ZN4llvm6detail13PunnedPointerINS_12PointerUnionIJPKN5clang14IdentifierInfoEPNS3_20MultiKeywordSelectorEEEEEC2El(ptr noundef nonnull align 8 dereferenceable(8) %4, i64 noundef 0)
  ret void
}

; Function Attrs: mustprogress nounwind uwtable
define linkonce_odr hidden i64 @_ZNK5clang15DeclarationName15getObjCSelectorEv(ptr noundef nonnull align 8 dereferenceable(8) %0) #0 comdat align 2 {
  %2 = alloca %"class.clang::Selector", align 8
  %3 = alloca ptr, align 8
  store ptr %0, ptr %3, align 8
  %4 = load ptr, ptr %3, align 8
  %5 = getelementptr inbounds nuw %"class.clang::DeclarationName", ptr %4, i32 0, i32 0
  %6 = load i64, ptr %5, align 8
  call void @_ZN5clang8SelectorC2Em(ptr noundef nonnull align 8 dereferenceable(8) %2, i64 noundef %6)
  %7 = getelementptr inbounds nuw %"class.clang::Selector", ptr %2, i32 0, i32 0
  %8 = getelementptr inbounds nuw %"class.llvm::PointerIntPair.354", ptr %7, i32 0, i32 0
  %9 = getelementptr inbounds nuw %"struct.llvm::detail::PunnedPointer.355", ptr %8, i32 0, i32 0
  %10 = load i64, ptr %9, align 8
  ret i64 %10
}

; Function Attrs: mustprogress nounwind uwtable
define linkonce_odr hidden i64 @_ZNK5clang9NamedDecl11getDeclNameEv(ptr noundef nonnull align 8 dereferenceable(48) %0) #0 comdat align 2 {
  %2 = alloca %"class.clang::DeclarationName", align 8
  %3 = alloca ptr, align 8
  store ptr %0, ptr %3, align 8
  %4 = load ptr, ptr %3, align 8
  %5 = getelementptr inbounds nuw %"class.clang::NamedDecl", ptr %4, i32 0, i32 1
  call void @llvm.memcpy.p0.p0.i64(ptr align 8 %2, ptr align 8 %5, i64 8, i1 false)
  %6 = getelementptr inbounds nuw %"class.clang::DeclarationName", ptr %2, i32 0, i32 0
  %7 = load i64, ptr %6, align 8
  ret i64 %7
}

; Function Attrs: mustprogress nounwind uwtable
define linkonce_odr hidden void @_ZN5clang8SelectorC2Em(ptr noundef nonnull align 8 dereferenceable(8) %0, i64 noundef %1) unnamed_addr #0 comdat align 2 {
  %3 = alloca ptr, align 8
  %4 = alloca i64, align 8
  store ptr %0, ptr %3, align 8
  store i64 %1, ptr %4, align 8
  %5 = load ptr, ptr %3, align 8
  %6 = getelementptr inbounds nuw %"class.clang::Selector", ptr %5, i32 0, i32 0
  call void @_ZN4llvm14PointerIntPairINS_12PointerUnionIJPKN5clang14IdentifierInfoEPNS2_20MultiKeywordSelectorEEEELj2EjNS_21PointerLikeTypeTraitsIS8_EENS_18PointerIntPairInfoIS8_Lj2ESA_EEEC2Ev(ptr noundef nonnull align 8 dereferenceable(8) %6)
  %7 = getelementptr inbounds nuw %"class.clang::Selector", ptr %5, i32 0, i32 0
  %8 = load i64, ptr %4, align 8
  %9 = inttoptr i64 %8 to ptr
  call void @_ZNR4llvm14PointerIntPairINS_12PointerUnionIJPKN5clang14IdentifierInfoEPNS2_20MultiKeywordSelectorEEEELj2EjNS_21PointerLikeTypeTraitsIS8_EENS_18PointerIntPairInfoIS8_Lj2ESA_EEE18setFromOpaqueValueEPv(ptr noundef nonnull align 8 dereferenceable(8) %7, ptr noundef %9)
  ret void
}

; Function Attrs: mustprogress nounwind uwtable
define linkonce_odr hidden i64 @_ZNK5clang14ObjCMethodDecl11getSelectorEv(ptr noundef nonnull align 8 dereferenceable(136) %0) #0 comdat align 2 {
  %2 = alloca %"class.clang::Selector", align 8
  %3 = alloca ptr, align 8
  %4 = alloca %"class.clang::DeclarationName", align 8
  store ptr %0, ptr %3, align 8
  %5 = load ptr, ptr %3, align 8
  %6 = call i64 @_ZNK5clang9NamedDecl11getDeclNameEv(ptr noundef nonnull align 8 dereferenceable(48) %5)
  %7 = getelementptr inbounds nuw %"class.clang::DeclarationName", ptr %4, i32 0, i32 0
  store i64 %6, ptr %7, align 8
  %8 = call i64 @_ZNK5clang15DeclarationName15getObjCSelectorEv(ptr noundef nonnull align 8 dereferenceable(8) %4)
  %9 = getelementptr inbounds nuw %"class.clang::Selector", ptr %2, i32 0, i32 0
  %10 = getelementptr inbounds nuw %"class.llvm::PointerIntPair.354", ptr %9, i32 0, i32 0
  %11 = getelementptr inbounds nuw %"struct.llvm::detail::PunnedPointer.355", ptr %10, i32 0, i32 0
  store i64 %8, ptr %11, align 8
  %12 = getelementptr inbounds nuw %"class.clang::Selector", ptr %2, i32 0, i32 0
  %13 = getelementptr inbounds nuw %"class.llvm::PointerIntPair.354", ptr %12, i32 0, i32 0
  %14 = getelementptr inbounds nuw %"struct.llvm::detail::PunnedPointer.355", ptr %13, i32 0, i32 0
  %15 = load i64, ptr %14, align 8
  ret i64 %15
}

; Function Attrs: mustprogress nounwind uwtable
define dso_local i64 @_ZNK5clang15ObjCMessageExpr11getSelectorEv(ptr noundef nonnull align 8 dereferenceable(40) %0) #0 align 2 {
  %2 = alloca %"class.clang::Selector", align 8
  %3 = alloca ptr, align 8
  store ptr %0, ptr %3, align 8
  %4 = load ptr, ptr %3, align 8
  %5 = getelementptr inbounds nuw %"class.clang::ObjCMessageExpr", ptr %4, i32 0, i32 2
  %6 = load i32, ptr %5, align 8
  %7 = lshr i32 %6, 24
  %8 = and i32 %7, 1
  %9 = icmp ne i32 %8, 0
  br i1 %9, label %10, label %18

10:                                               ; preds = %1
  %11 = getelementptr inbounds nuw %"class.clang::ObjCMessageExpr", ptr %4, i32 0, i32 1
  %12 = load i64, ptr %11, align 8
  %13 = inttoptr i64 %12 to ptr
  %14 = call i64 @_ZNK5clang14ObjCMethodDecl11getSelectorEv(ptr noundef nonnull align 8 dereferenceable(136) %13)
  %15 = getelementptr inbounds nuw %"class.clang::Selector", ptr %2, i32 0, i32 0
  %16 = getelementptr inbounds nuw %"class.llvm::PointerIntPair.354", ptr %15, i32 0, i32 0
  %17 = getelementptr inbounds nuw %"struct.llvm::detail::PunnedPointer.355", ptr %16, i32 0, i32 0
  store i64 %14, ptr %17, align 8
  br label %21

18:                                               ; preds = %1
  %19 = getelementptr inbounds nuw %"class.clang::ObjCMessageExpr", ptr %4, i32 0, i32 1
  %20 = load i64, ptr %19, align 8
  call void @_ZN5clang8SelectorC2Em(ptr noundef nonnull align 8 dereferenceable(8) %2, i64 noundef %20)
  br label %21

21:                                               ; preds = %18, %10
  %22 = getelementptr inbounds nuw %"class.clang::Selector", ptr %2, i32 0, i32 0
  %23 = getelementptr inbounds nuw %"class.llvm::PointerIntPair.354", ptr %22, i32 0, i32 0
  %24 = getelementptr inbounds nuw %"struct.llvm::detail::PunnedPointer.355", ptr %23, i32 0, i32 0
  %25 = load i64, ptr %24, align 8
  ret i64 %25
}